target datalayout = "e-m:e-p270:32:32-p271:32:32-p272:64:64-i64:64-i128:128-f80:128-n8:16:32:64-S128"
target triple = "x86_64-pc-linux-gnu"

; Function Attrs: inlinehint nounwind uwtable
define internal ptr @ossl_check_const_X509_NAME_sk_type(ptr noundef %0) #2 {
  %2 = alloca ptr, align 8
  store ptr %0, ptr %2, align 8, !tbaa !346
  %3 = load ptr, ptr %2, align 8, !tbaa !346
  ret ptr %3
}

; Function Attrs: nounwind uwtable
define internal i32 @ssl_check_ca_name(ptr noundef %0, ptr noundef %1) #1 {
  %3 = alloca i32, align 4
  %4 = alloca ptr, align 8
  %5 = alloca ptr, align 8
  %6 = alloca ptr, align 8
  %7 = alloca i32, align 4
  %8 = alloca i32, align 4
  store ptr %0, ptr %4, align 8, !tbaa !346
  store ptr %1, ptr %5, align 8, !tbaa !334
  call void @llvm.lifetime.start.p0(i64 8, ptr %6) #8
  call void @llvm.lifetime.start.p0(i64 4, ptr %7) #8
  %9 = load ptr, ptr %5, align 8, !tbaa !334
  %10 = call ptr @X509_get_issuer_name(ptr noundef %9)
  store ptr %10, ptr %6, align 8, !tbaa !354
  store i32 0, ptr %7, align 4, !tbaa !128
  br label %11

11:                                               ; preds = %27, %2
  %12 = load i32, ptr %7, align 4, !tbaa !128
  %13 = load ptr, ptr %4, align 8, !tbaa !346
  %14 = call ptr @ossl_check_const_X509_NAME_sk_type(ptr noundef %13)
  %15 = call i32 @OPENSSL_sk_num(ptr noundef %14)
  %16 = icmp slt i32 %12, %15
  br i1 %16, label %17, label %30

17:                                               ; preds = %11
  %18 = load ptr, ptr %6, align 8, !tbaa !354
  %19 = load ptr, ptr %4, align 8, !tbaa !346
  %20 = call ptr @ossl_check_const_X509_NAME_sk_type(ptr noundef %19)
  %21 = load i32, ptr %7, align 4, !tbaa !128
  %22 = call ptr @OPENSSL_sk_value(ptr noundef %20, i32 noundef %21)
  %23 = call i32 @X509_NAME_cmp(ptr noundef %18, ptr noundef %22)
  %24 = icmp ne i32 %23, 0
  br i1 %24, label %26, label %25

25:                                               ; preds = %17
  store i32 1, ptr %3, align 4
  store i32 1, ptr %8, align 4
  br label %31

26:                                               ; preds = %17
  br label %27

27:                                               ; preds = %26
  %28 = load i32, ptr %7, align 4, !tbaa !128
  %29 = add nsw i32 %28, 1
  store i32 %29, ptr %7, align 4, !tbaa !128
  br label %11, !llvm.loop !356

30:                                               ; preds = %11
  store i32 0, ptr %3, align 4
  store i32 1, ptr %8, align 4
  br label %31

31:                                               ; preds = %30, %25
  call void @llvm.lifetime.end.p0(i64 4, ptr %7) #8
  call void @llvm.lifetime.end.p0(i64 8, ptr %6) #8
  %32 = load i32, ptr %3, align 4
  ret i32 %32
}