; Function Attrs: nounwind uwtable
define internal fastcc range(i32 0, 2) i32 @ssl_check_ca_name(ptr noundef nonnull %0, ptr noundef %1) unnamed_addr #2 {
  %3 = tail call ptr @X509_get_issuer_name(ptr noundef %1) #14
  %4 = tail call i32 @OPENSSL_sk_num(ptr noundef nonnull %0) #14
  %5 = icmp sgt i32 %4, 0
  br i1 %5, label %.lr.ph, label %._crit_edge

6:                                                ; preds = %.lr.ph
  %7 = add nuw nsw i32 %.08, 1
  %8 = tail call i32 @OPENSSL_sk_num(ptr noundef nonnull %0) #14
  %9 = icmp slt i32 %7, %8
  br i1 %9, label %.lr.ph, label %._crit_edge, !llvm.loop !294

.lr.ph:                                           ; preds = %2, %6
  %.08 = phi i32 [ %7, %6 ], [ 0, %2 ]
  %10 = tail call ptr @OPENSSL_sk_value(ptr noundef nonnull %0, i32 noundef %.08) #14
  %11 = tail call i32 @X509_NAME_cmp(ptr noundef %3, ptr noundef %10) #14
  %.not = icmp eq i32 %11, 0
  br i1 %.not, label %._crit_edge, label %6

._crit_edge:                                      ; preds = %.lr.ph, %6, %2
  %.07 = phi i32 [ 0, %2 ], [ 0, %6 ], [ 1, %.lr.ph ]
  ret i32 %.07
}